target datalayout = "e-m:e-p270:32:32-p271:32:32-p272:64:64-i64:64-i128:128-f80:128-n8:16:32:64-S128"
target triple = "x86_64-pc-linux-gnu"

%"class.icu_77::UnicodeString" = type { %"class.icu_77::Replaceable", %"union.icu_77::UnicodeString::StackBufferOrFields" }
%"class.icu_77::Replaceable" = type { %"class.icu_77::UObject" }
%"class.icu_77::UObject" = type { ptr }
%"union.icu_77::UnicodeString::StackBufferOrFields" = type { %struct.anon.0, [32 x i8] }
%struct.anon.0 = type { i16, i32, i32, ptr }
%"class.icu_77::FieldPosition" = type <{ %"class.icu_77::UObject", i32, i32, i32, [4 x i8] }>

@_ZTIN6icu_777UObjectE = external constant ptr
@_ZTIN6icu_778TimeZoneE = external constant ptr
@_ZTIN6icu_778CalendarE = external constant ptr

; Function Attrs: inlinehint mustprogress nounwind uwtable
define linkonce_odr noundef i32 @_ZNK6icu_7713UnicodeString14getShortLengthEv(ptr noundef nonnull align 8 dereferenceable(64) %0) #2 comdat align 2 {
  %2 = alloca ptr, align 8
  store ptr %0, ptr %2, align 8, !tbaa !33
  %3 = load ptr, ptr %2, align 8
  %4 = getelementptr inbounds nuw %"class.icu_77::UnicodeString", ptr %3, i32 0, i32 1
  %5 = getelementptr inbounds nuw %struct.anon.0, ptr %4, i32 0, i32 0
  %6 = load i16, ptr %5, align 8, !tbaa !37
  %7 = sext i16 %6 to i32
  %8 = ashr i32 %7, 5
  ret i32 %8
}

; Function Attrs: inlinehint mustprogress nounwind uwtable
define linkonce_odr noundef signext i8 @_ZNK6icu_7713UnicodeString14hasShortLengthEv(ptr noundef nonnull align 8 dereferenceable(64) %0) #2 comdat align 2 {
  %2 = alloca ptr, align 8
  store ptr %0, ptr %2, align 8, !tbaa !33
  %3 = load ptr, ptr %2, align 8
  %4 = getelementptr inbounds nuw %"class.icu_77::UnicodeString", ptr %3, i32 0, i32 1
  %5 = getelementptr inbounds nuw %struct.anon.0, ptr %4, i32 0, i32 0
  %6 = load i16, ptr %5, align 8, !tbaa !37
  %7 = sext i16 %6 to i32
  %8 = icmp sge i32 %7, 0
  %9 = zext i1 %8 to i8
  ret i8 %9
}

; Function Attrs: mustprogress nounwind uwtable
define linkonce_odr void @_ZN6icu_7713FieldPosition11setEndIndexEi(ptr noundef nonnull align 8 dereferenceable(20) %0, i32 noundef %1) #0 comdat align 2 {
  %3 = alloca ptr, align 8
  %4 = alloca i32, align 4
  store ptr %0, ptr %3, align 8, !tbaa !109
  store i32 %1, ptr %4, align 4, !tbaa !14
  %5 = load ptr, ptr %3, align 8
  %6 = load i32, ptr %4, align 4, !tbaa !14
  %7 = getelementptr inbounds nuw %"class.icu_77::FieldPosition", ptr %5, i32 0, i32 3
  store i32 %6, ptr %7, align 8, !tbaa !118
  ret void
}

; Function Attrs: inlinehint mustprogress uwtable
define linkonce_odr noundef i32 @_ZNK6icu_7713UnicodeString6lengthEv(ptr noundef nonnull align 8 dereferenceable(64) %0) #3 comdat align 2 {
  %2 = alloca ptr, align 8
  store ptr %0, ptr %2, align 8, !tbaa !33
  %3 = load ptr, ptr %2, align 8
  %4 = call noundef signext i8 @_ZNK6icu_7713UnicodeString14hasShortLengthEv(ptr noundef nonnull align 8 dereferenceable(64) %3)
  %5 = icmp ne i8 %4, 0
  br i1 %5, label %6, label %8

6:                                                ; preds = %1
  %7 = call noundef i32 @_ZNK6icu_7713UnicodeString14getShortLengthEv(ptr noundef nonnull align 8 dereferenceable(64) %3)
  br label %12

8:                                                ; preds = %1
  %9 = getelementptr inbounds nuw %"class.icu_77::UnicodeString", ptr %3, i32 0, i32 1
  %10 = getelementptr inbounds nuw %struct.anon.0, ptr %9, i32 0, i32 1
  %11 = load i32, ptr %10, align 4, !tbaa !37
  br label %12

12:                                               ; preds = %8, %6
  %13 = phi i32 [ %7, %6 ], [ %11, %8 ]
  ret i32 %13
}

; Function Attrs: mustprogress nounwind uwtable
define linkonce_odr void @_ZN6icu_7713FieldPosition13setBeginIndexEi(ptr noundef nonnull align 8 dereferenceable(20) %0, i32 noundef %1) #0 comdat align 2 {
  %3 = alloca ptr, align 8
  %4 = alloca i32, align 4
  store ptr %0, ptr %3, align 8, !tbaa !109
  store i32 %1, ptr %4, align 4, !tbaa !14
  %5 = load ptr, ptr %3, align 8
  %6 = load i32, ptr %4, align 4, !tbaa !14
  %7 = getelementptr inbounds nuw %"class.icu_77::FieldPosition", ptr %5, i32 0, i32 2
  store i32 %6, ptr %7, align 4, !tbaa !117
  ret void
}

; Function Attrs: mustprogress nounwind uwtable
define linkonce_odr noundef i32 @_ZNK6icu_7713FieldPosition8getFieldEv(ptr noundef nonnull align 8 dereferenceable(20) %0) #0 comdat align 2 {
  %2 = alloca ptr, align 8
  store ptr %0, ptr %2, align 8, !tbaa !109
  %3 = load ptr, ptr %2, align 8
  %4 = getelementptr inbounds nuw %"class.icu_77::FieldPosition", ptr %3, i32 0, i32 1
  %5 = load i32, ptr %4, align 8, !tbaa !115
  ret i32 %5
}

; Function Attrs: inlinehint mustprogress uwtable
define linkonce_odr noundef nonnull align 8 dereferenceable(64) ptr @_ZN6icu_7713UnicodeString6appendERKS0_(ptr noundef nonnull align 8 dereferenceable(64) %0, ptr noundef nonnull align 8 dereferenceable(64) %1) #3 comdat align 2 {
  %3 = alloca ptr, align 8
  %4 = alloca ptr, align 8
  store ptr %0, ptr %3, align 8, !tbaa !33
  store ptr %1, ptr %4, align 8, !tbaa !33
  %5 = load ptr, ptr %3, align 8
  %6 = load ptr, ptr %4, align 8, !tbaa !33
  %7 = load ptr, ptr %4, align 8, !tbaa !33
  %8 = call noundef i32 @_ZNK6icu_7713UnicodeString6lengthEv(ptr noundef nonnull align 8 dereferenceable(64) %7)
  %9 = call noundef nonnull align 8 dereferenceable(64) ptr @_ZN6icu_7713UnicodeString8doAppendERKS0_ii(ptr noundef nonnull align 8 dereferenceable(64) %5, ptr noundef nonnull align 8 dereferenceable(64) %6, i32 noundef 0, i32 noundef %8)
  ret ptr %9
}

; Function Attrs: inlinehint mustprogress nounwind uwtable
define internal noundef signext i8 @_ZL9U_SUCCESS10UErrorCode(i32 noundef %0) #2 {
  %2 = alloca i32, align 4
  store i32 %0, ptr %2, align 4, !tbaa !15
  %3 = load i32, ptr %2, align 4, !tbaa !15
  %4 = icmp sle i32 %3, 0
  %5 = zext i1 %4 to i8
  ret i8 %5
}

; Function Attrs: mustprogress uwtable
define noundef nonnull align 8 dereferenceable(64) ptr @_ZNK6icu_7714TimeZoneFormat24formatOffsetLocalizedGMTEiRNS_13UnicodeStringER10UErrorCode(ptr noundef nonnull align 8 dereferenceable(1024) %0, i32 noundef %1, ptr noundef nonnull align 8 dereferenceable(64) %2, ptr noundef nonnull align 4 dereferenceable(4) %3) #1 align 2 {
  %5 = alloca ptr, align 8
  %6 = alloca i32, align 4
  %7 = alloca ptr, align 8
  %8 = alloca ptr, align 8
  store ptr %0, ptr %5, align 8, !tbaa !39
  store i32 %1, ptr %6, align 4, !tbaa !14
  store ptr %2, ptr %7, align 8, !tbaa !33
  store ptr %3, ptr %8, align 8, !tbaa !22
  %9 = load ptr, ptr %5, align 8
  %10 = load i32, ptr %6, align 4, !tbaa !14
  %11 = load ptr, ptr %7, align 8, !tbaa !33
  %12 = load ptr, ptr %8, align 8, !tbaa !22
  %13 = call noundef nonnull align 8 dereferenceable(64) ptr @_ZNK6icu_7714TimeZoneFormat24formatOffsetLocalizedGMTEiaRNS_13UnicodeStringER10UErrorCode(ptr noundef nonnull align 8 dereferenceable(1024) %9, i32 noundef %10, i8 noundef signext 0, ptr noundef nonnull align 8 dereferenceable(64) %11, ptr noundef nonnull align 4 dereferenceable(4) %12)
  ret ptr %13
}

; Function Attrs: inlinehint mustprogress uwtable
define linkonce_odr noundef double @_ZNK6icu_778Calendar7getTimeER10UErrorCode(ptr noundef nonnull align 8 dereferenceable(192) %0, ptr noundef nonnull align 4 dereferenceable(4) %1) #3 comdat align 2 {
  %3 = alloca ptr, align 8
  %4 = alloca ptr, align 8
  store ptr %0, ptr %3, align 8, !tbaa !113
  store ptr %1, ptr %4, align 8, !tbaa !22
  %5 = load ptr, ptr %3, align 8
  %6 = load ptr, ptr %4, align 8, !tbaa !22
  %7 = call noundef double @_ZNK6icu_778Calendar15getTimeInMillisER10UErrorCode(ptr noundef nonnull align 8 dereferenceable(192) %5, ptr noundef nonnull align 4 dereferenceable(4) %6)
  ret double %7
}

; Function Attrs: inlinehint mustprogress nounwind uwtable
define internal noundef signext i8 @_ZL9U_FAILURE10UErrorCode(i32 noundef %0) #2 {
  %2 = alloca i32, align 4
  store i32 %0, ptr %2, align 4, !tbaa !15
  %3 = load i32, ptr %2, align 4, !tbaa !15
  %4 = icmp sgt i32 %3, 0
  %5 = zext i1 %4 to i8
  ret i8 %5
}

; Function Attrs: mustprogress uwtable
define noundef nonnull align 8 dereferenceable(64) ptr @_ZNK6icu_7714TimeZoneFormat6formatERKNS_11FormattableERNS_13UnicodeStringERNS_13FieldPositionER10UErrorCode(ptr noundef nonnull align 8 dereferenceable(1024) %0, ptr noundef nonnull align 8 dereferenceable(112) %1, ptr noundef nonnull align 8 dereferenceable(64) %2, ptr noundef nonnull align 8 dereferenceable(20) %3, ptr noundef nonnull align 4 dereferenceable(4) %4) unnamed_addr #1 align 2 personality ptr @__gxx_personality_v0 {
  %6 = alloca ptr, align 8
  %7 = alloca ptr, align 8
  %8 = alloca ptr, align 8
  %9 = alloca ptr, align 8
  %10 = alloca ptr, align 8
  %11 = alloca ptr, align 8
  %12 = alloca double, align 8
  %13 = alloca ptr, align 8
  %14 = alloca ptr, align 8
  %15 = alloca ptr, align 8
  %16 = alloca i32, align 4
  %17 = alloca i32, align 4
  %18 = alloca [128 x i16], align 16
  %19 = alloca %"class.icu_77::UnicodeString", align 8
  %20 = alloca ptr, align 8
  %21 = alloca i32, align 4
  store ptr %0, ptr %7, align 8, !tbaa !39
  store ptr %1, ptr %8, align 8, !tbaa !107
  store ptr %2, ptr %9, align 8, !tbaa !33
  store ptr %3, ptr %10, align 8, !tbaa !109
  store ptr %4, ptr %11, align 8, !tbaa !22
  %22 = load ptr, ptr %7, align 8
  %23 = load ptr, ptr %11, align 8, !tbaa !22
  %24 = load i32, ptr %23, align 4, !tbaa !15
  %25 = call noundef signext i8 @_ZL9U_FAILURE10UErrorCode(i32 noundef %24)
  %26 = icmp ne i8 %25, 0
  br i1 %26, label %27, label %29

27:                                               ; preds = %5
  %28 = load ptr, ptr %9, align 8, !tbaa !33
  store ptr %28, ptr %6, align 8
  br label %109

29:                                               ; preds = %5
  call void @llvm.lifetime.start.p0(i64 8, ptr %12) #15
  %30 = call noundef double @_ZN6icu_778Calendar6getNowEv()
  store double %30, ptr %12, align 8, !tbaa !100
  %31 = load ptr, ptr %8, align 8, !tbaa !107
  %32 = call noundef i32 @_ZNK6icu_7711Formattable7getTypeEv(ptr noundef nonnull align 8 dereferenceable(112) %31)
  %33 = icmp eq i32 %32, 6
  br i1 %33, label %34, label %107

34:                                               ; preds = %29
  call void @llvm.lifetime.start.p0(i64 8, ptr %13) #15
  %35 = load ptr, ptr %8, align 8, !tbaa !107
  %36 = call noundef ptr @_ZNK6icu_7711Formattable9getObjectEv(ptr noundef nonnull align 8 dereferenceable(112) %35)
  store ptr %36, ptr %13, align 8, !tbaa !111
  call void @llvm.lifetime.start.p0(i64 8, ptr %14) #15
  %37 = load ptr, ptr %13, align 8, !tbaa !111
  %38 = icmp eq ptr %37, null
  br i1 %38, label %41, label %39

39:                                               ; preds = %34
  %40 = call ptr @__dynamic_cast(ptr %37, ptr @_ZTIN6icu_777UObjectE, ptr @_ZTIN6icu_778TimeZoneE, i64 0) #15
  br label %42

41:                                               ; preds = %34
  br label %42

42:                                               ; preds = %41, %39
  %43 = phi ptr [ %40, %39 ], [ null, %41 ]
  store ptr %43, ptr %14, align 8, !tbaa !98
  %44 = load ptr, ptr %14, align 8, !tbaa !98
  %45 = icmp eq ptr %44, null
  br i1 %45, label %46, label %63

46:                                               ; preds = %42
  call void @llvm.lifetime.start.p0(i64 8, ptr %15) #15
  %47 = load ptr, ptr %13, align 8, !tbaa !111
  %48 = icmp eq ptr %47, null
  br i1 %48, label %51, label %49

49:                                               ; preds = %46
  %50 = call ptr @__dynamic_cast(ptr %47, ptr @_ZTIN6icu_777UObjectE, ptr @_ZTIN6icu_778CalendarE, i64 0) #15
  br label %52

51:                                               ; preds = %46
  br label %52

52:                                               ; preds = %51, %49
  %53 = phi ptr [ %50, %49 ], [ null, %51 ]
  store ptr %53, ptr %15, align 8, !tbaa !113
  %54 = load ptr, ptr %15, align 8, !tbaa !113
  %55 = icmp ne ptr %54, null
  br i1 %55, label %56, label %62

56:                                               ; preds = %52
  %57 = load ptr, ptr %15, align 8, !tbaa !113
  %58 = call noundef nonnull align 8 dereferenceable(72) ptr @_ZNK6icu_778Calendar11getTimeZoneEv(ptr noundef nonnull align 8 dereferenceable(192) %57)
  store ptr %58, ptr %14, align 8, !tbaa !98
  %59 = load ptr, ptr %15, align 8, !tbaa !113
  %60 = load ptr, ptr %11, align 8, !tbaa !22
  %61 = call noundef double @_ZNK6icu_778Calendar7getTimeER10UErrorCode(ptr noundef nonnull align 8 dereferenceable(192) %59, ptr noundef nonnull align 4 dereferenceable(4) %60)
  store double %61, ptr %12, align 8, !tbaa !100
  br label %62

62:                                               ; preds = %56, %52
  call void @llvm.lifetime.end.p0(i64 8, ptr %15) #15
  br label %63

63:                                               ; preds = %62, %42
  %64 = load ptr, ptr %14, align 8, !tbaa !98
  %65 = icmp ne ptr %64, null
  br i1 %65, label %66, label %106

66:                                               ; preds = %63
  call void @llvm.lifetime.start.p0(i64 4, ptr %16) #15
  call void @llvm.lifetime.start.p0(i64 4, ptr %17) #15
  %67 = load ptr, ptr %14, align 8, !tbaa !98
  %68 = load double, ptr %12, align 8, !tbaa !100
  %69 = load ptr, ptr %11, align 8, !tbaa !22
  %70 = load ptr, ptr %67, align 8, !tbaa !25
  %71 = getelementptr inbounds ptr, ptr %70, i64 6
  %72 = load ptr, ptr %71, align 8
  call void %72(ptr noundef nonnull align 8 dereferenceable(72) %67, double noundef %68, i8 noundef signext 0, ptr noundef nonnull align 4 dereferenceable(4) %16, ptr noundef nonnull align 4 dereferenceable(4) %17, ptr noundef nonnull align 4 dereferenceable(4) %69)
  call void @llvm.lifetime.start.p0(i64 256, ptr %18) #15
  call void @llvm.lifetime.start.p0(i64 64, ptr %19) #15
  %73 = getelementptr inbounds [128 x i16], ptr %18, i64 0, i64 0
  call void @_ZN6icu_7713UnicodeStringC1EPDsii(ptr noundef nonnull align 8 dereferenceable(64) %19, ptr noundef %73, i32 noundef 0, i32 noundef 128)
  %74 = load i32, ptr %16, align 4, !tbaa !14
  %75 = load i32, ptr %17, align 4, !tbaa !14
  %76 = add nsw i32 %74, %75
  %77 = load ptr, ptr %11, align 8, !tbaa !22
  %78 = invoke noundef nonnull align 8 dereferenceable(64) ptr @_ZNK6icu_7714TimeZoneFormat24formatOffsetLocalizedGMTEiRNS_13UnicodeStringER10UErrorCode(ptr noundef nonnull align 8 dereferenceable(1024) %22, i32 noundef %76, ptr noundef nonnull align 8 dereferenceable(64) %19, ptr noundef nonnull align 4 dereferenceable(4) %77)
          to label %79 unwind label %100

79:                                               ; preds = %66
  %80 = load ptr, ptr %11, align 8, !tbaa !22
  %81 = load i32, ptr %80, align 4, !tbaa !15
  %82 = invoke noundef signext i8 @_ZL9U_SUCCESS10UErrorCode(i32 noundef %81)
          to label %83 unwind label %100

83:                                               ; preds = %79
  %84 = icmp ne i8 %82, 0
  br i1 %84, label %85, label %105

85:                                               ; preds = %83
  %86 = load ptr, ptr %9, align 8, !tbaa !33
  %87 = invoke noundef nonnull align 8 dereferenceable(64) ptr @_ZN6icu_7713UnicodeString6appendERKS0_(ptr noundef nonnull align 8 dereferenceable(64) %86, ptr noundef nonnull align 8 dereferenceable(64) %19)
          to label %88 unwind label %100

88:                                               ; preds = %85
  %89 = load ptr, ptr %10, align 8, !tbaa !109
  %90 = invoke noundef i32 @_ZNK6icu_7713FieldPosition8getFieldEv(ptr noundef nonnull align 8 dereferenceable(20) %89)
          to label %91 unwind label %100

91:                                               ; preds = %88
  %92 = icmp eq i32 %90, 17
  br i1 %92, label %93, label %104

93:                                               ; preds = %91
  %94 = load ptr, ptr %10, align 8, !tbaa !109
  invoke void @_ZN6icu_7713FieldPosition13setBeginIndexEi(ptr noundef nonnull align 8 dereferenceable(20) %94, i32 noundef 0)
          to label %95 unwind label %100

95:                                               ; preds = %93
  %96 = load ptr, ptr %10, align 8, !tbaa !109
  %97 = invoke noundef i32 @_ZNK6icu_7713UnicodeString6lengthEv(ptr noundef nonnull align 8 dereferenceable(64) %19)
          to label %98 unwind label %100

98:                                               ; preds = %95
  invoke void @_ZN6icu_7713FieldPosition11setEndIndexEi(ptr noundef nonnull align 8 dereferenceable(20) %96, i32 noundef %97)
          to label %99 unwind label %100

99:                                               ; preds = %98
  br label %104

100:                                              ; preds = %98, %95, %93, %88, %85, %79, %66
  %101 = landingpad { ptr, i32 }
          cleanup
  %102 = extractvalue { ptr, i32 } %101, 0
  store ptr %102, ptr %20, align 8
  %103 = extractvalue { ptr, i32 } %101, 1
  store i32 %103, ptr %21, align 4
  call void @_ZN6icu_7713UnicodeStringD1Ev(ptr noundef nonnull align 8 dereferenceable(64) %19) #15
  call void @llvm.lifetime.end.p0(i64 64, ptr %19) #15
  call void @llvm.lifetime.end.p0(i64 256, ptr %18) #15
  call void @llvm.lifetime.end.p0(i64 4, ptr %17) #15
  call void @llvm.lifetime.end.p0(i64 4, ptr %16) #15
  call void @llvm.lifetime.end.p0(i64 8, ptr %14) #15
  call void @llvm.lifetime.end.p0(i64 8, ptr %13) #15
  call void @llvm.lifetime.end.p0(i64 8, ptr %12) #15
  br label %111

104:                                              ; preds = %99, %91
  br label %105

105:                                              ; preds = %104, %83
  call void @_ZN6icu_7713UnicodeStringD1Ev(ptr noundef nonnull align 8 dereferenceable(64) %19) #15
  call void @llvm.lifetime.end.p0(i64 64, ptr %19) #15
  call void @llvm.lifetime.end.p0(i64 256, ptr %18) #15
  call void @llvm.lifetime.end.p0(i64 4, ptr %17) #15
  call void @llvm.lifetime.end.p0(i64 4, ptr %16) #15
  br label %106

106:                                              ; preds = %105, %63
  call void @llvm.lifetime.end.p0(i64 8, ptr %14) #15
  call void @llvm.lifetime.end.p0(i64 8, ptr %13) #15
  br label %107

107:                                              ; preds = %106, %29
  %108 = load ptr, ptr %9, align 8, !tbaa !33
  store ptr %108, ptr %6, align 8
  call void @llvm.lifetime.end.p0(i64 8, ptr %12) #15
  br label %109

109:                                              ; preds = %107, %27
  %110 = load ptr, ptr %6, align 8
  ret ptr %110

111:                                              ; preds = %100
  %112 = load ptr, ptr %20, align 8
  %113 = load i32, ptr %21, align 4
  %114 = insertvalue { ptr, i32 } poison, ptr %112, 0
  %115 = insertvalue { ptr, i32 } %114, i32 %113, 1
  resume { ptr, i32 } %115
}