; Function Attrs: mustprogress uwtable
define noundef nonnull align 8 dereferenceable(64) ptr @_ZNK6icu_7714TimeZoneFormat6formatERKNS_11FormattableERNS_13UnicodeStringERNS_13FieldPositionER10UErrorCode(ptr noundef nonnull align 8 dereferenceable(1024) %0, ptr noundef nonnull align 8 dereferenceable(112) %1, ptr noundef nonnull returned align 8 dereferenceable(64) %2, ptr noundef nonnull align 8 captures(none) dereferenceable(20) %3, ptr noundef nonnull align 4 dereferenceable(4) %4) unnamed_addr #1 align 2 personality ptr @__gxx_personality_v0 {
  %6 = alloca i32, align 4
  %7 = alloca i32, align 4
  %8 = alloca [128 x i16], align 16
  %9 = alloca %"class.icu_77::UnicodeString", align 8
  %10 = load i32, ptr %4, align 4, !tbaa !13
  %11 = icmp slt i32 %10, 1
  br i1 %11, label %12, label %.thread38

12:                                               ; preds = %5
  %13 = tail call noundef double @_ZN6icu_778Calendar6getNowEv()
  %14 = tail call noundef i32 @_ZNK6icu_7711Formattable7getTypeEv(ptr noundef nonnull align 8 dereferenceable(112) %1)
  %15 = icmp eq i32 %14, 6
  br i1 %15, label %16, label %.thread38

16:                                               ; preds = %12
  %17 = tail call noundef ptr @_ZNK6icu_7711Formattable9getObjectEv(ptr noundef nonnull align 8 dereferenceable(112) %1)
  %18 = icmp eq ptr %17, null
  br i1 %18, label %.thread38, label %19

19:                                               ; preds = %16
  %20 = tail call ptr @__dynamic_cast(ptr nonnull %17, ptr nonnull @_ZTIN6icu_777UObjectE, ptr nonnull @_ZTIN6icu_778TimeZoneE, i64 0) #22
  %21 = icmp eq ptr %20, null
  br i1 %21, label %22, label %27

22:                                               ; preds = %19
  %23 = tail call ptr @__dynamic_cast(ptr nonnull %17, ptr nonnull @_ZTIN6icu_777UObjectE, ptr nonnull @_ZTIN6icu_778CalendarE, i64 0) #22
  %.not32 = icmp eq ptr %23, null
  br i1 %.not32, label %.thread38, label %24

24:                                               ; preds = %22
  %25 = tail call noundef nonnull align 8 dereferenceable(72) ptr @_ZNK6icu_778Calendar11getTimeZoneEv(ptr noundef nonnull align 8 dereferenceable(192) %23)
  %26 = tail call noundef double @_ZNK6icu_778Calendar15getTimeInMillisER10UErrorCode(ptr noundef nonnull align 8 dereferenceable(192) %23, ptr noundef nonnull align 4 dereferenceable(4) %4)
  br label %27

27:                                               ; preds = %19, %24
  %.026 = phi ptr [ %20, %19 ], [ %25, %24 ]
  %.025 = phi double [ %13, %19 ], [ %26, %24 ]
  call void @llvm.lifetime.start.p0(i64 4, ptr nonnull %6) #22
  call void @llvm.lifetime.start.p0(i64 4, ptr nonnull %7) #22
  %28 = load ptr, ptr %.026, align 8, !tbaa !15
  %29 = getelementptr inbounds nuw i8, ptr %28, i64 48
  %30 = load ptr, ptr %29, align 8
  call void %30(ptr noundef nonnull align 8 dereferenceable(72) %.026, double noundef %.025, i8 noundef signext 0, ptr noundef nonnull align 4 dereferenceable(4) %6, ptr noundef nonnull align 4 dereferenceable(4) %7, ptr noundef nonnull align 4 dereferenceable(4) %4)
  call void @llvm.lifetime.start.p0(i64 256, ptr nonnull %8) #22
  call void @llvm.lifetime.start.p0(i64 64, ptr nonnull %9) #22
  call void @_ZN6icu_7713UnicodeStringC1EPDsii(ptr noundef nonnull align 8 dereferenceable(64) %9, ptr noundef nonnull %8, i32 noundef 0, i32 noundef 128)
  %31 = load i32, ptr %6, align 4, !tbaa !12
  %32 = load i32, ptr %7, align 4, !tbaa !12
  %33 = add nsw i32 %32, %31
  %34 = invoke noundef nonnull align 8 dereferenceable(64) ptr @_ZNK6icu_7714TimeZoneFormat24formatOffsetLocalizedGMTEiaRNS_13UnicodeStringER10UErrorCode(ptr noundef nonnull align 8 dereferenceable(1024) %0, i32 noundef %33, i8 noundef signext 0, ptr noundef nonnull align 8 dereferenceable(64) %9, ptr noundef nonnull align 4 dereferenceable(4) %4)
          to label %_ZNK6icu_7714TimeZoneFormat24formatOffsetLocalizedGMTEiRNS_13UnicodeStringER10UErrorCode.exit unwind label %59

_ZNK6icu_7714TimeZoneFormat24formatOffsetLocalizedGMTEiRNS_13UnicodeStringER10UErrorCode.exit: ; preds = %27
  %35 = load i32, ptr %4, align 4, !tbaa !13
  %36 = icmp sgt i32 %35, 0
  br i1 %36, label %61, label %37

37:                                               ; preds = %_ZNK6icu_7714TimeZoneFormat24formatOffsetLocalizedGMTEiRNS_13UnicodeStringER10UErrorCode.exit
  %38 = getelementptr inbounds nuw i8, ptr %9, i64 8
  %39 = load i16, ptr %38, align 8, !tbaa !23
  %40 = icmp slt i16 %39, 0
  %41 = ashr i16 %39, 5
  %42 = sext i16 %41 to i32
  %43 = getelementptr inbounds nuw i8, ptr %9, i64 12
  %44 = load i32, ptr %43, align 4
  %45 = select i1 %40, i32 %44, i32 %42
  %46 = invoke noundef nonnull align 8 dereferenceable(64) ptr @_ZN6icu_7713UnicodeString8doAppendERKS0_ii(ptr noundef nonnull align 8 dereferenceable(64) %2, ptr noundef nonnull align 8 dereferenceable(64) %9, i32 noundef 0, i32 noundef %45)
          to label %_ZN6icu_7713UnicodeString6appendERKS0_.exit unwind label %59

_ZN6icu_7713UnicodeString6appendERKS0_.exit:      ; preds = %37
  %47 = getelementptr inbounds nuw i8, ptr %3, i64 8
  %48 = load i32, ptr %47, align 8, !tbaa !63
  %49 = icmp eq i32 %48, 17
  br i1 %49, label %50, label %61

50:                                               ; preds = %_ZN6icu_7713UnicodeString6appendERKS0_.exit
  %51 = getelementptr inbounds nuw i8, ptr %3, i64 12
  store i32 0, ptr %51, align 4, !tbaa !65
  %52 = load i16, ptr %38, align 8, !tbaa !23
  %53 = icmp slt i16 %52, 0
  %54 = ashr i16 %52, 5
  %55 = sext i16 %54 to i32
  %56 = load i32, ptr %43, align 4
  %57 = select i1 %53, i32 %56, i32 %55
  %58 = getelementptr inbounds nuw i8, ptr %3, i64 16
  store i32 %57, ptr %58, align 8, !tbaa !66
  br label %61

59:                                               ; preds = %37, %27
  %60 = landingpad { ptr, i32 }
          cleanup
  call void @_ZN6icu_7713UnicodeStringD1Ev(ptr noundef nonnull align 8 dereferenceable(64) %9) #22
  call void @llvm.lifetime.end.p0(i64 64, ptr nonnull %9) #22
  call void @llvm.lifetime.end.p0(i64 256, ptr nonnull %8) #22
  call void @llvm.lifetime.end.p0(i64 4, ptr nonnull %7) #22
  call void @llvm.lifetime.end.p0(i64 4, ptr nonnull %6) #22
  resume { ptr, i32 } %60

61:                                               ; preds = %_ZN6icu_7713UnicodeString6appendERKS0_.exit, %50, %_ZNK6icu_7714TimeZoneFormat24formatOffsetLocalizedGMTEiRNS_13UnicodeStringER10UErrorCode.exit
  call void @_ZN6icu_7713UnicodeStringD1Ev(ptr noundef nonnull align 8 dereferenceable(64) %9) #22
  call void @llvm.lifetime.end.p0(i64 64, ptr nonnull %9) #22
  call void @llvm.lifetime.end.p0(i64 256, ptr nonnull %8) #22
  call void @llvm.lifetime.end.p0(i64 4, ptr nonnull %7) #22
  call void @llvm.lifetime.end.p0(i64 4, ptr nonnull %6) #22
  br label %.thread38

.thread38:                                        ; preds = %16, %22, %12, %61, %5
  ret ptr %2
}